; Function Attrs: mustprogress nounwind uwtable
define void @_ZN32pxrInternal_v0_24__pxrReserved__20UsdStageCacheRequest12_DataDeleterclEPNS0_5_DataE(ptr nocapture noundef nonnull readnone align 1 dereferenceable(1) %0, ptr noundef %1) local_unnamed_addr #0 align 2 personality ptr @__gxx_personality_v0 {
  %3 = icmp eq ptr %1, null
  br i1 %3, label %12, label %4

4:                                                ; preds = %2
  %5 = load ptr, ptr %1, align 8
  %.not.i.i.i.i = icmp eq ptr %5, null
  br i1 %.not.i.i.i.i, label %_ZN32pxrInternal_v0_24__pxrReserved__20UsdStageCacheRequest5_DataD2Ev.exit, label %6

6:                                                ; preds = %4
  %7 = getelementptr inbounds nuw i8, ptr %1, i64 16
  %8 = load ptr, ptr %7, align 8
  %9 = ptrtoint ptr %8 to i64
  %10 = ptrtoint ptr %5 to i64
  %11 = sub i64 %9, %10
  tail call void @_ZdlPvm(ptr noundef nonnull %5, i64 noundef %11) #16
  br label %_ZN32pxrInternal_v0_24__pxrReserved__20UsdStageCacheRequest5_DataD2Ev.exit

_ZN32pxrInternal_v0_24__pxrReserved__20UsdStageCacheRequest5_DataD2Ev.exit: ; preds = %4, %6
  tail call void @_ZdlPvm(ptr noundef nonnull %1, i64 noundef 24) #16
  br label %12

12:                                               ; preds = %_ZN32pxrInternal_v0_24__pxrReserved__20UsdStageCacheRequest5_DataD2Ev.exit, %2
  ret void
}